target datalayout = "e-m:e-p270:32:32-p271:32:32-p272:64:64-i64:64-i128:128-f80:128-n8:16:32:64-S128"
target triple = "x86_64-pc-linux-gnu"

@_ZL7nfp_ffn = internal constant [11 x i32] [i32 0, i32 1, i32 2, i32 3, i32 5, i32 7, i32 9, i32 2, i32 4, i32 3, i32 6], align 16
@.str.38 = private unnamed_addr constant [62 x i8] c"There are %d data points, %d parameters, %s chi2 = %g\0Aparams:\00", align 1
@.str.39 = private unnamed_addr constant [7 x i8] c"  %10g\00", align 1
@.str.40 = private unnamed_addr constant [2 x i8] c"\0A\00", align 1

; Function Attrs: mustprogress nounwind uwtable
define noundef i32 @_Z11effnNparamsi(i32 noundef %0) #0 {
  %2 = alloca i32, align 4
  %3 = alloca i32, align 4
  store i32 %0, ptr %3, align 4, !tbaa !4
  %4 = load i32, ptr %3, align 4, !tbaa !4
  %5 = icmp sle i32 0, %4
  br i1 %5, label %6, label %14

6:                                                ; preds = %1
  %7 = load i32, ptr %3, align 4, !tbaa !4
  %8 = icmp slt i32 %7, 11
  br i1 %8, label %9, label %14

9:                                                ; preds = %6
  %10 = load i32, ptr %3, align 4, !tbaa !4
  %11 = sext i32 %10 to i64
  %12 = getelementptr inbounds [11 x i32], ptr @_ZL7nfp_ffn, i64 0, i64 %11
  %13 = load i32, ptr %12, align 4, !tbaa !4
  store i32 %13, ptr %2, align 4
  br label %15

14:                                               ; preds = %6, %1
  store i32 -1, ptr %2, align 4
  br label %15

15:                                               ; preds = %14, %9
  %16 = load i32, ptr %2, align 4
  ret i32 %16
}

; Function Attrs: mustprogress nounwind uwtable
define linkonce_odr noundef double @_ZN3gmx6squareIdEET_S1_(double noundef %0) #0 comdat {
  %2 = alloca double, align 8
  store double %0, ptr %2, align 8, !tbaa !16
  %3 = load double, ptr %2, align 8, !tbaa !16
  %4 = load double, ptr %2, align 8, !tbaa !16
  %5 = fmul double %3, %4
  ret double %5
}

; Function Attrs: mustprogress uwtable
define internal void @_ZL17print_chi2_paramsP8_IO_FILEiPKdPKciS2_S2_(ptr noundef %0, i32 noundef %1, ptr noundef %2, ptr noundef %3, i32 noundef %4, ptr noundef %5, ptr noundef %6) #3 {
  %8 = alloca ptr, align 8
  %9 = alloca i32, align 4
  %10 = alloca ptr, align 8
  %11 = alloca ptr, align 8
  %12 = alloca i32, align 4
  %13 = alloca ptr, align 8
  %14 = alloca ptr, align 8
  %15 = alloca i32, align 4
  %16 = alloca double, align 8
  %17 = alloca double, align 8
  store ptr %0, ptr %8, align 8, !tbaa !20
  store i32 %1, ptr %9, align 4, !tbaa !4
  store ptr %2, ptr %10, align 8, !tbaa !18
  store ptr %3, ptr %11, align 8, !tbaa !8
  store i32 %4, ptr %12, align 4, !tbaa !4
  store ptr %5, ptr %13, align 8, !tbaa !18
  store ptr %6, ptr %14, align 8, !tbaa !18
  call void @llvm.lifetime.start.p0(i64 4, ptr %15) #14
  call void @llvm.lifetime.start.p0(i64 8, ptr %16) #14
  store double 0.000000e+00, ptr %16, align 8, !tbaa !16
  store i32 0, ptr %15, align 4, !tbaa !4
  br label %18

18:                                               ; preds = %44, %7
  %19 = load i32, ptr %15, align 4, !tbaa !4
  %20 = load i32, ptr %12, align 4, !tbaa !4
  %21 = icmp slt i32 %19, %20
  br i1 %21, label %22, label %47

22:                                               ; preds = %18
  call void @llvm.lifetime.start.p0(i64 8, ptr %17) #14
  %23 = load i32, ptr %9, align 4, !tbaa !4
  %24 = sext i32 %23 to i64
  %25 = getelementptr inbounds [12 x ptr], ptr @lmcurves, i64 0, i64 %24
  %26 = load ptr, ptr %25, align 8, !tbaa !22
  %27 = load ptr, ptr %13, align 8, !tbaa !18
  %28 = load i32, ptr %15, align 4, !tbaa !4
  %29 = sext i32 %28 to i64
  %30 = getelementptr inbounds double, ptr %27, i64 %29
  %31 = load double, ptr %30, align 8, !tbaa !16
  %32 = load ptr, ptr %10, align 8, !tbaa !18
  %33 = call noundef double %26(double noundef %31, ptr noundef %32)
  store double %33, ptr %17, align 8, !tbaa !16
  %34 = load ptr, ptr %14, align 8, !tbaa !18
  %35 = load i32, ptr %15, align 4, !tbaa !4
  %36 = sext i32 %35 to i64
  %37 = getelementptr inbounds double, ptr %34, i64 %36
  %38 = load double, ptr %37, align 8, !tbaa !16
  %39 = load double, ptr %17, align 8, !tbaa !16
  %40 = fsub double %38, %39
  %41 = call noundef double @_ZN3gmx6squareIdEET_S1_(double noundef %40)
  %42 = load double, ptr %16, align 8, !tbaa !16
  %43 = fadd double %42, %41
  store double %43, ptr %16, align 8, !tbaa !16
  call void @llvm.lifetime.end.p0(i64 8, ptr %17) #14
  br label %44

44:                                               ; preds = %22
  %45 = load i32, ptr %15, align 4, !tbaa !4
  %46 = add nsw i32 %45, 1
  store i32 %46, ptr %15, align 4, !tbaa !4
  br label %18, !llvm.loop !42

47:                                               ; preds = %18
  %48 = load ptr, ptr %8, align 8, !tbaa !20
  %49 = load i32, ptr %12, align 4, !tbaa !4
  %50 = load i32, ptr %9, align 4, !tbaa !4
  %51 = call noundef i32 @_Z11effnNparamsi(i32 noundef %50)
  %52 = load ptr, ptr %11, align 8, !tbaa !8
  %53 = load double, ptr %16, align 8, !tbaa !16
  %54 = call i32 (ptr, ptr, ...) @fprintf(ptr noundef %48, ptr noundef @.str.38, i32 noundef %49, i32 noundef %51, ptr noundef %52, double noundef %53) #14
  store i32 0, ptr %15, align 4, !tbaa !4
  br label %55

55:                                               ; preds = %68, %47
  %56 = load i32, ptr %15, align 4, !tbaa !4
  %57 = load i32, ptr %9, align 4, !tbaa !4
  %58 = call noundef i32 @_Z11effnNparamsi(i32 noundef %57)
  %59 = icmp slt i32 %56, %58
  br i1 %59, label %60, label %71

60:                                               ; preds = %55
  %61 = load ptr, ptr %8, align 8, !tbaa !20
  %62 = load ptr, ptr %10, align 8, !tbaa !18
  %63 = load i32, ptr %15, align 4, !tbaa !4
  %64 = sext i32 %63 to i64
  %65 = getelementptr inbounds double, ptr %62, i64 %64
  %66 = load double, ptr %65, align 8, !tbaa !16
  %67 = call i32 (ptr, ptr, ...) @fprintf(ptr noundef %61, ptr noundef @.str.39, double noundef %66) #14
  br label %68

68:                                               ; preds = %60
  %69 = load i32, ptr %15, align 4, !tbaa !4
  %70 = add nsw i32 %69, 1
  store i32 %70, ptr %15, align 4, !tbaa !4
  br label %55, !llvm.loop !43

71:                                               ; preds = %55
  %72 = load ptr, ptr %8, align 8, !tbaa !20
  %73 = call i32 (ptr, ptr, ...) @fprintf(ptr noundef %72, ptr noundef @.str.40) #14
  call void @llvm.lifetime.end.p0(i64 8, ptr %16) #14
  call void @llvm.lifetime.end.p0(i64 4, ptr %15) #14
  ret void
}